target datalayout = "e-m:e-p270:32:32-p271:32:32-p272:64:64-i64:64-i128:128-f80:128-n8:16:32:64-S128"
target triple = "x86_64-pc-linux-gnu"

%struct.Curl_easy = type { i32, i64, i64, ptr, %struct.Curl_llist_node, %struct.Curl_llist_node, i32, i32, %struct.Curl_message, %struct.easy_pollset, %struct.Names, ptr, ptr, ptr, ptr, %struct.SingleRequest, %struct.UserDefined, ptr, ptr, ptr, %struct.Progress, %struct.UrlState, ptr, %struct.PureInfo, %struct.curl_tlssessioninfo }
%struct.Curl_llist_node = type { ptr, ptr, ptr, ptr }
%struct.Curl_message = type { %struct.Curl_llist_node, %struct.CURLMsg }
%struct.CURLMsg = type { i32, ptr, %union.anon }
%union.anon = type { ptr }
%struct.easy_pollset = type { [5 x i32], i32, [5 x i8] }
%struct.Names = type { ptr, i32 }
%struct.SingleRequest = type <{ i64, i64, i64, i64, %struct.curltime, i32, i32, i32, i32, i64, i32, i32, i8, i8, [2 x i8], i32, ptr, ptr, %struct.bufq, i64, i64, ptr, ptr, %union.anon.0, ptr, i8, i32, [3 x i8] }>
%struct.curltime = type { i64, i32 }
%struct.bufq = type { ptr, ptr, ptr, ptr, i64, i64, i64, i32 }
%union.anon.0 = type { ptr }
%struct.UserDefined = type <{ ptr, ptr, ptr, ptr, ptr, ptr, i64, i64, i64, ptr, ptr, i64, ptr, ptr, ptr, ptr, ptr, ptr, ptr, ptr, ptr, ptr, ptr, ptr, ptr, ptr, ptr, ptr, ptr, ptr, ptr, ptr, ptr, ptr, ptr, i64, i64, i64, i64, i64, i64, i64, i64, i64, ptr, ptr, %struct.curl_mimepart, ptr, ptr, ptr, i64, %struct.ssl_config_data, %struct.ssl_config_data, ptr, i16, i8, i8, %struct.ssl_general_config, i32, i32, i32, [4 x i8], ptr, ptr, i64, i32, i8, i8, i8, i8, ptr, ptr, ptr, i32, [4 x i8], [74 x ptr], [8 x ptr], i32, i32, i32, [4 x i8], ptr, i32, [4 x i8], ptr, ptr, ptr, ptr, ptr, i32, i32, i32, i32, i32, i32, i32, i32, i64, ptr, ptr, i64, ptr, i64, ptr, ptr, ptr, ptr, i32, i16, i16, i16, i8, i8, i8, i8, i8, i8, i8, i8, i64, [6 x i8] }>
%struct.curl_mimepart = type { ptr, ptr, i32, i32, ptr, ptr, ptr, ptr, ptr, ptr, ptr, ptr, ptr, ptr, ptr, i64, %struct.mime_state, ptr, %struct.mime_encoder_state, i64 }
%struct.mime_state = type { i32, ptr, i64 }
%struct.mime_encoder_state = type { i64, i64, i64, [256 x i8] }
%struct.ssl_config_data = type { %struct.ssl_primary_config, i64, ptr, ptr, ptr, ptr, ptr, ptr, ptr, i16 }
%struct.ssl_primary_config = type { ptr, ptr, ptr, ptr, ptr, ptr, ptr, ptr, ptr, ptr, ptr, ptr, ptr, ptr, i8, i32, i8, i8 }
%struct.ssl_general_config = type { i32 }
%struct.Progress = type { i64, %struct.pgrs_dir, %struct.pgrs_dir, i64, i64, i32, i32, i64, i64, i64, i64, i64, i64, i64, i64, i64, %struct.curltime, %struct.curltime, %struct.curltime, %struct.curltime, %struct.curltime, [6 x i64], [6 x %struct.curltime], i32, i8 }
%struct.pgrs_dir = type { i64, i64, i64, %struct.pgrs_measure }
%struct.pgrs_measure = type { %struct.curltime, i64 }
%struct.UrlState = type { %struct.curltime, i64, i64, %struct.dynbuf, ptr, i64, ptr, i32, i32, i32, ptr, i32, i64, i32, ptr, %struct.digestdata, %struct.digestdata, %struct.auth, %struct.auth, %struct.Curl_async, ptr, i8, %struct.curltime, %struct.Curl_tree, %struct.Curl_llist, [15 x %struct.time_node], ptr, ptr, i64, i64, i64, i64, [32 x i8], i64, ptr, ptr, ptr, %struct.urlpieces, ptr, ptr, ptr, ptr, ptr, i64, %struct.dynbuf, %struct.Curl_llist, [2 x %struct.curl_header], ptr, i32, ptr, ptr, %struct.store_netrc, %struct.dynamically_allocated_data, i8, i8, i8, i8, i32 }
%struct.digestdata = type { ptr, ptr, ptr, ptr, ptr, ptr, i32, i8, i8 }
%struct.auth = type { i64, i64, i64, i8 }
%struct.Curl_async = type { ptr, ptr, ptr, ptr, i32, i32, i8 }
%struct.Curl_tree = type { ptr, ptr, ptr, ptr, %struct.curltime, ptr }
%struct.time_node = type { %struct.Curl_llist_node, %struct.curltime, i32 }
%struct.urlpieces = type { ptr, ptr, ptr, ptr, ptr, ptr, ptr, ptr }
%struct.dynbuf = type { ptr, i64, i64, i64 }
%struct.Curl_llist = type { ptr, ptr, ptr, i64 }
%struct.curl_header = type { ptr, ptr, i64, i64, i32, ptr }
%struct.store_netrc = type { %struct.dynbuf, ptr, i8 }
%struct.dynamically_allocated_data = type { ptr, ptr, ptr, ptr, ptr, ptr, ptr, ptr, ptr, ptr, ptr, ptr, ptr, ptr }
%struct.PureInfo = type { i32, i32, i32, i64, i64, i64, i64, i64, i64, i64, ptr, ptr, i64, i32, %struct.ip_quadruple, i32, ptr, i32, %struct.curl_certinfo, i32, i8 }
%struct.ip_quadruple = type { [46 x i8], [46 x i8], i32, i32 }
%struct.curl_certinfo = type { i32, ptr }
%struct.curl_tlssessioninfo = type { i32, ptr }
%struct.Curl_header_store = type { %struct.Curl_llist_node, ptr, ptr, i32, i8, [1 x i8] }

; Function Attrs: nounwind uwtable
define internal void @copy_header_external(ptr noundef %0, i64 noundef %1, i64 noundef %2, ptr noundef %3, ptr noundef %4) #0 {
  %6 = alloca ptr, align 8
  %7 = alloca i64, align 8
  %8 = alloca i64, align 8
  %9 = alloca ptr, align 8
  %10 = alloca ptr, align 8
  %11 = alloca ptr, align 8
  store ptr %0, ptr %6, align 8, !tbaa !19
  store i64 %1, ptr %7, align 8, !tbaa !9
  store i64 %2, ptr %8, align 8, !tbaa !9
  store ptr %3, ptr %9, align 8, !tbaa !15
  store ptr %4, ptr %10, align 8, !tbaa !92
  call void @llvm.lifetime.start.p0(i64 8, ptr %11) #5
  %12 = load ptr, ptr %10, align 8, !tbaa !92
  store ptr %12, ptr %11, align 8, !tbaa !92
  %13 = load ptr, ptr %6, align 8, !tbaa !19
  %14 = getelementptr inbounds nuw %struct.Curl_header_store, ptr %13, i32 0, i32 1
  %15 = load ptr, ptr %14, align 8, !tbaa !85
  %16 = load ptr, ptr %11, align 8, !tbaa !92
  %17 = getelementptr inbounds nuw %struct.curl_header, ptr %16, i32 0, i32 0
  store ptr %15, ptr %17, align 8, !tbaa !94
  %18 = load ptr, ptr %6, align 8, !tbaa !19
  %19 = getelementptr inbounds nuw %struct.Curl_header_store, ptr %18, i32 0, i32 2
  %20 = load ptr, ptr %19, align 8, !tbaa !96
  %21 = load ptr, ptr %11, align 8, !tbaa !92
  %22 = getelementptr inbounds nuw %struct.curl_header, ptr %21, i32 0, i32 1
  store ptr %20, ptr %22, align 8, !tbaa !97
  %23 = load i64, ptr %8, align 8, !tbaa !9
  %24 = load ptr, ptr %11, align 8, !tbaa !92
  %25 = getelementptr inbounds nuw %struct.curl_header, ptr %24, i32 0, i32 2
  store i64 %23, ptr %25, align 8, !tbaa !98
  %26 = load i64, ptr %7, align 8, !tbaa !9
  %27 = load ptr, ptr %11, align 8, !tbaa !92
  %28 = getelementptr inbounds nuw %struct.curl_header, ptr %27, i32 0, i32 3
  store i64 %26, ptr %28, align 8, !tbaa !99
  %29 = load ptr, ptr %6, align 8, !tbaa !19
  %30 = getelementptr inbounds nuw %struct.Curl_header_store, ptr %29, i32 0, i32 4
  %31 = load i8, ptr %30, align 4, !tbaa !87
  %32 = zext i8 %31 to i32
  %33 = or i32 %32, 134217728
  %34 = load ptr, ptr %11, align 8, !tbaa !92
  %35 = getelementptr inbounds nuw %struct.curl_header, ptr %34, i32 0, i32 4
  store i32 %33, ptr %35, align 8, !tbaa !100
  %36 = load ptr, ptr %9, align 8, !tbaa !15
  %37 = load ptr, ptr %11, align 8, !tbaa !92
  %38 = getelementptr inbounds nuw %struct.curl_header, ptr %37, i32 0, i32 5
  store ptr %36, ptr %38, align 8, !tbaa !101
  call void @llvm.lifetime.end.p0(i64 8, ptr %11) #5
  ret void
}

; Function Attrs: nounwind uwtable
define ptr @curl_easy_nextheader(ptr noundef %0, i32 noundef %1, i32 noundef %2, ptr noundef %3) #0 {
  %5 = alloca ptr, align 8
  %6 = alloca ptr, align 8
  %7 = alloca i32, align 4
  %8 = alloca i32, align 4
  %9 = alloca ptr, align 8
  %10 = alloca ptr, align 8
  %11 = alloca ptr, align 8
  %12 = alloca ptr, align 8
  %13 = alloca ptr, align 8
  %14 = alloca i64, align 8
  %15 = alloca i64, align 8
  %16 = alloca i32, align 4
  %17 = alloca ptr, align 8
  store ptr %0, ptr %6, align 8, !tbaa !3
  store i32 %1, ptr %7, align 4, !tbaa !11
  store i32 %2, ptr %8, align 4, !tbaa !11
  store ptr %3, ptr %9, align 8, !tbaa !92
  call void @llvm.lifetime.start.p0(i64 8, ptr %10) #5
  %18 = load ptr, ptr %6, align 8, !tbaa !3
  store ptr %18, ptr %10, align 8, !tbaa !17
  call void @llvm.lifetime.start.p0(i64 8, ptr %11) #5
  call void @llvm.lifetime.start.p0(i64 8, ptr %12) #5
  call void @llvm.lifetime.start.p0(i64 8, ptr %13) #5
  call void @llvm.lifetime.start.p0(i64 8, ptr %14) #5
  store i64 0, ptr %14, align 8, !tbaa !9
  call void @llvm.lifetime.start.p0(i64 8, ptr %15) #5
  store i64 0, ptr %15, align 8, !tbaa !9
  %19 = load i32, ptr %8, align 4, !tbaa !11
  %20 = load ptr, ptr %10, align 8, !tbaa !17
  %21 = getelementptr inbounds nuw %struct.Curl_easy, ptr %20, i32 0, i32 21
  %22 = getelementptr inbounds nuw %struct.UrlState, ptr %21, i32 0, i32 13
  %23 = load i32, ptr %22, align 8, !tbaa !21
  %24 = icmp sgt i32 %19, %23
  br i1 %24, label %25, label %26

25:                                               ; preds = %4
  store ptr null, ptr %5, align 8
  store i32 1, ptr %16, align 4
  br label %146

26:                                               ; preds = %4
  %27 = load i32, ptr %8, align 4, !tbaa !11
  %28 = icmp eq i32 %27, -1
  br i1 %28, label %29, label %34

29:                                               ; preds = %26
  %30 = load ptr, ptr %10, align 8, !tbaa !17
  %31 = getelementptr inbounds nuw %struct.Curl_easy, ptr %30, i32 0, i32 21
  %32 = getelementptr inbounds nuw %struct.UrlState, ptr %31, i32 0, i32 13
  %33 = load i32, ptr %32, align 8, !tbaa !21
  store i32 %33, ptr %8, align 4, !tbaa !11
  br label %34

34:                                               ; preds = %29, %26
  %35 = load ptr, ptr %9, align 8, !tbaa !92
  %36 = icmp ne ptr %35, null
  br i1 %36, label %37, label %47

37:                                               ; preds = %34
  %38 = load ptr, ptr %9, align 8, !tbaa !92
  %39 = getelementptr inbounds nuw %struct.curl_header, ptr %38, i32 0, i32 5
  %40 = load ptr, ptr %39, align 8, !tbaa !101
  store ptr %40, ptr %11, align 8, !tbaa !15
  %41 = load ptr, ptr %11, align 8, !tbaa !15
  %42 = icmp ne ptr %41, null
  br i1 %42, label %44, label %43

43:                                               ; preds = %37
  store ptr null, ptr %5, align 8
  store i32 1, ptr %16, align 4
  br label %146

44:                                               ; preds = %37
  %45 = load ptr, ptr %11, align 8, !tbaa !15
  %46 = call ptr @Curl_node_next(ptr noundef %45)
  store ptr %46, ptr %11, align 8, !tbaa !15
  br label %52

47:                                               ; preds = %34
  %48 = load ptr, ptr %10, align 8, !tbaa !17
  %49 = getelementptr inbounds nuw %struct.Curl_easy, ptr %48, i32 0, i32 21
  %50 = getelementptr inbounds nuw %struct.UrlState, ptr %49, i32 0, i32 45
  %51 = call ptr @Curl_llist_head(ptr noundef %50)
  store ptr %51, ptr %11, align 8, !tbaa !15
  br label %52

52:                                               ; preds = %47, %44
  %53 = load ptr, ptr %11, align 8, !tbaa !15
  %54 = icmp ne ptr %53, null
  br i1 %54, label %55, label %80

55:                                               ; preds = %52
  br label %56

56:                                               ; preds = %76, %55
  %57 = load ptr, ptr %11, align 8, !tbaa !15
  %58 = call ptr @Curl_node_elem(ptr noundef %57)
  store ptr %58, ptr %13, align 8, !tbaa !19
  %59 = load ptr, ptr %13, align 8, !tbaa !19
  %60 = getelementptr inbounds nuw %struct.Curl_header_store, ptr %59, i32 0, i32 4
  %61 = load i8, ptr %60, align 4, !tbaa !87
  %62 = zext i8 %61 to i32
  %63 = load i32, ptr %7, align 4, !tbaa !11
  %64 = and i32 %62, %63
  %65 = icmp ne i32 %64, 0
  br i1 %65, label %66, label %73

66:                                               ; preds = %56
  %67 = load ptr, ptr %13, align 8, !tbaa !19
  %68 = getelementptr inbounds nuw %struct.Curl_header_store, ptr %67, i32 0, i32 3
  %69 = load i32, ptr %68, align 8, !tbaa !88
  %70 = load i32, ptr %8, align 4, !tbaa !11
  %71 = icmp eq i32 %69, %70
  br i1 %71, label %72, label %73

72:                                               ; preds = %66
  br label %79

73:                                               ; preds = %66, %56
  %74 = load ptr, ptr %11, align 8, !tbaa !15
  %75 = call ptr @Curl_node_next(ptr noundef %74)
  store ptr %75, ptr %11, align 8, !tbaa !15
  br label %76

76:                                               ; preds = %73
  %77 = load ptr, ptr %11, align 8, !tbaa !15
  %78 = icmp ne ptr %77, null
  br i1 %78, label %56, label %79, !llvm.loop !102

79:                                               ; preds = %76, %72
  br label %80

80:                                               ; preds = %79, %52
  %81 = load ptr, ptr %11, align 8, !tbaa !15
  %82 = icmp ne ptr %81, null
  br i1 %82, label %84, label %83

83:                                               ; preds = %80
  store ptr null, ptr %5, align 8
  store i32 1, ptr %16, align 4
  br label %146

84:                                               ; preds = %80
  %85 = load ptr, ptr %11, align 8, !tbaa !15
  %86 = call ptr @Curl_node_elem(ptr noundef %85)
  store ptr %86, ptr %13, align 8, !tbaa !19
  %87 = load ptr, ptr %10, align 8, !tbaa !17
  %88 = getelementptr inbounds nuw %struct.Curl_easy, ptr %87, i32 0, i32 21
  %89 = getelementptr inbounds nuw %struct.UrlState, ptr %88, i32 0, i32 45
  %90 = call ptr @Curl_llist_head(ptr noundef %89)
  store ptr %90, ptr %12, align 8, !tbaa !15
  br label %91

91:                                               ; preds = %130, %84
  %92 = load ptr, ptr %12, align 8, !tbaa !15
  %93 = icmp ne ptr %92, null
  br i1 %93, label %94, label %133

94:                                               ; preds = %91
  call void @llvm.lifetime.start.p0(i64 8, ptr %17) #5
  %95 = load ptr, ptr %12, align 8, !tbaa !15
  %96 = call ptr @Curl_node_elem(ptr noundef %95)
  store ptr %96, ptr %17, align 8, !tbaa !19
  %97 = load ptr, ptr %13, align 8, !tbaa !19
  %98 = getelementptr inbounds nuw %struct.Curl_header_store, ptr %97, i32 0, i32 1
  %99 = load ptr, ptr %98, align 8, !tbaa !85
  %100 = load ptr, ptr %17, align 8, !tbaa !19
  %101 = getelementptr inbounds nuw %struct.Curl_header_store, ptr %100, i32 0, i32 1
  %102 = load ptr, ptr %101, align 8, !tbaa !85
  %103 = call i32 @curl_strequal(ptr noundef %99, ptr noundef %102)
  %104 = icmp ne i32 %103, 0
  br i1 %104, label %105, label %122

105:                                              ; preds = %94
  %106 = load ptr, ptr %17, align 8, !tbaa !19
  %107 = getelementptr inbounds nuw %struct.Curl_header_store, ptr %106, i32 0, i32 3
  %108 = load i32, ptr %107, align 8, !tbaa !88
  %109 = load i32, ptr %8, align 4, !tbaa !11
  %110 = icmp eq i32 %108, %109
  br i1 %110, label %111, label %122

111:                                              ; preds = %105
  %112 = load ptr, ptr %17, align 8, !tbaa !19
  %113 = getelementptr inbounds nuw %struct.Curl_header_store, ptr %112, i32 0, i32 4
  %114 = load i8, ptr %113, align 4, !tbaa !87
  %115 = zext i8 %114 to i32
  %116 = load i32, ptr %7, align 4, !tbaa !11
  %117 = and i32 %115, %116
  %118 = icmp ne i32 %117, 0
  br i1 %118, label %119, label %122

119:                                              ; preds = %111
  %120 = load i64, ptr %14, align 8, !tbaa !9
  %121 = add i64 %120, 1
  store i64 %121, ptr %14, align 8, !tbaa !9
  br label %122

122:                                              ; preds = %119, %111, %105, %94
  %123 = load ptr, ptr %12, align 8, !tbaa !15
  %124 = load ptr, ptr %11, align 8, !tbaa !15
  %125 = icmp eq ptr %123, %124
  br i1 %125, label %126, label %129

126:                                              ; preds = %122
  %127 = load i64, ptr %14, align 8, !tbaa !9
  %128 = sub i64 %127, 1
  store i64 %128, ptr %15, align 8, !tbaa !9
  br label %129

129:                                              ; preds = %126, %122
  call void @llvm.lifetime.end.p0(i64 8, ptr %17) #5
  br label %130

130:                                              ; preds = %129
  %131 = load ptr, ptr %12, align 8, !tbaa !15
  %132 = call ptr @Curl_node_next(ptr noundef %131)
  store ptr %132, ptr %12, align 8, !tbaa !15
  br label %91, !llvm.loop !103

133:                                              ; preds = %91
  %134 = load ptr, ptr %13, align 8, !tbaa !19
  %135 = load i64, ptr %15, align 8, !tbaa !9
  %136 = load i64, ptr %14, align 8, !tbaa !9
  %137 = load ptr, ptr %11, align 8, !tbaa !15
  %138 = load ptr, ptr %10, align 8, !tbaa !17
  %139 = getelementptr inbounds nuw %struct.Curl_easy, ptr %138, i32 0, i32 21
  %140 = getelementptr inbounds nuw %struct.UrlState, ptr %139, i32 0, i32 46
  %141 = getelementptr inbounds [2 x %struct.curl_header], ptr %140, i64 0, i64 1
  call void @copy_header_external(ptr noundef %134, i64 noundef %135, i64 noundef %136, ptr noundef %137, ptr noundef %141)
  %142 = load ptr, ptr %10, align 8, !tbaa !17
  %143 = getelementptr inbounds nuw %struct.Curl_easy, ptr %142, i32 0, i32 21
  %144 = getelementptr inbounds nuw %struct.UrlState, ptr %143, i32 0, i32 46
  %145 = getelementptr inbounds [2 x %struct.curl_header], ptr %144, i64 0, i64 1
  store ptr %145, ptr %5, align 8
  store i32 1, ptr %16, align 4
  br label %146

146:                                              ; preds = %133, %83, %43, %25
  call void @llvm.lifetime.end.p0(i64 8, ptr %15) #5
  call void @llvm.lifetime.end.p0(i64 8, ptr %14) #5
  call void @llvm.lifetime.end.p0(i64 8, ptr %13) #5
  call void @llvm.lifetime.end.p0(i64 8, ptr %12) #5
  call void @llvm.lifetime.end.p0(i64 8, ptr %11) #5
  call void @llvm.lifetime.end.p0(i64 8, ptr %10) #5
  %147 = load ptr, ptr %5, align 8
  ret ptr %147
}